target datalayout = "e-m:e-p270:32:32-p271:32:32-p272:64:64-i64:64-i128:128-f80:128-n8:16:32:64-S128"
target triple = "x86_64-pc-linux-gnu"

%struct._zval_struct = type { %union._zend_value, %union.anon, %union.anon.2 }
%union._zend_value = type { i64 }
%union.anon = type { i32 }
%union.anon.2 = type { i32 }
%union._zend_function = type { %struct._zend_op_array }
%struct._zend_op_array = type { i8, [3 x i8], i32, ptr, ptr, ptr, i32, i32, ptr, ptr, ptr, ptr, i32, ptr, i32, i32, i32, ptr, ptr, ptr, ptr, ptr, i32, i32, ptr, ptr, ptr, i32, i32, i32, i32, ptr, ptr, [6 x ptr] }
%struct._zend_refcounted_h = type { i32, %union.anon.4 }
%union.anon.4 = type { i32 }
%struct._zend_execute_data = type { ptr, ptr, ptr, ptr, %struct._zval_struct, ptr, ptr, ptr, ptr }
%struct._zend_closure = type { %struct._zend_object, %union._zend_function, %struct._zval_struct, ptr, ptr }
%struct._zend_object = type { %struct._zend_refcounted_h, i32, i32, ptr, ptr, ptr, [1 x %struct._zval_struct] }

; Function Attrs: nounwind uwtable
define internal void @zend_closure_internal_handler(ptr noundef %0, ptr noundef %1) #0 {
  %3 = alloca ptr, align 8
  %4 = alloca ptr, align 8
  %5 = alloca ptr, align 8
  store ptr %0, ptr %3, align 8, !tbaa !4
  store ptr %1, ptr %4, align 8, !tbaa !9
  call void @llvm.lifetime.start.p0(i64 8, ptr %5) #11
  %6 = load ptr, ptr %3, align 8, !tbaa !4
  %7 = getelementptr inbounds nuw %struct._zend_execute_data, ptr %6, i32 0, i32 3
  %8 = load ptr, ptr %7, align 8, !tbaa !11
  %9 = getelementptr inbounds i8, ptr %8, i64 -56
  store ptr %9, ptr %5, align 8, !tbaa !40
  %10 = load ptr, ptr %5, align 8, !tbaa !40
  %11 = getelementptr inbounds nuw %struct._zend_closure, ptr %10, i32 0, i32 4
  %12 = load ptr, ptr %11, align 8, !tbaa !66
  %13 = load ptr, ptr %3, align 8, !tbaa !4
  %14 = load ptr, ptr %4, align 8, !tbaa !9
  call void %12(ptr noundef %13, ptr noundef %14)
  br label %15

15:                                               ; preds = %2
  br label %16

16:                                               ; preds = %15
  %17 = load ptr, ptr %3, align 8, !tbaa !4
  %18 = getelementptr inbounds nuw %struct._zend_execute_data, ptr %17, i32 0, i32 4
  %19 = getelementptr inbounds nuw %struct._zval_struct, ptr %18, i32 0, i32 1
  %20 = load i32, ptr %19, align 8, !tbaa !20
  %21 = or i32 %20, 2097152
  store i32 %21, ptr %19, align 8, !tbaa !20
  br label %22

22:                                               ; preds = %16
  br label %23

23:                                               ; preds = %22
  br label %24

24:                                               ; preds = %23
  br label %25

25:                                               ; preds = %24
  %26 = load ptr, ptr %5, align 8, !tbaa !40
  %27 = getelementptr inbounds nuw %struct._zend_closure, ptr %26, i32 0, i32 0
  %28 = load ptr, ptr %3, align 8, !tbaa !4
  %29 = getelementptr inbounds nuw %struct._zend_execute_data, ptr %28, i32 0, i32 4
  %30 = getelementptr inbounds nuw %struct._zval_struct, ptr %29, i32 0, i32 0
  store ptr %27, ptr %30, align 8, !tbaa !20
  call void @llvm.lifetime.end.p0(i64 8, ptr %5) #11
  ret void
}