; Function Attrs: nounwind uwtable
define internal void @zend_closure_internal_handler(ptr noundef %0, ptr noundef %1) #0 {
  %3 = getelementptr inbounds nuw i8, ptr %0, i64 24
  %4 = load ptr, ptr %3, align 8, !tbaa !4
  %5 = getelementptr inbounds i8, ptr %4, i64 -56
  %6 = getelementptr inbounds nuw i8, ptr %4, i64 280
  %7 = load ptr, ptr %6, align 8, !tbaa !45
  tail call void %7(ptr noundef %0, ptr noundef %1) #13
  %8 = getelementptr inbounds nuw i8, ptr %0, i64 32
  %9 = getelementptr inbounds nuw i8, ptr %0, i64 40
  %10 = load i32, ptr %9, align 8, !tbaa !15
  %11 = or i32 %10, 2097152
  store i32 %11, ptr %9, align 8, !tbaa !15
  store ptr %5, ptr %8, align 8, !tbaa !15
  ret void
}